; Function Attrs: nounwind uwtable
define internal i32 @epm_dissect_pointer_IF_ID(ptr noundef %0, i32 noundef %1, ptr noundef %2, ptr noundef %3, ptr noundef %4, ptr noundef %5) #0 {
  %7 = getelementptr inbounds nuw i8, ptr %4, i64 64
  %8 = load i32, ptr %7, align 8
  %9 = tail call i32 @dissect_ndr_uuid_t(ptr noundef %0, i32 noundef %1, ptr noundef %2, ptr noundef %3, ptr noundef %4, ptr noundef %5, i32 noundef %8, ptr noundef null) #5
  %10 = load i32, ptr @hf_epm_ver_maj, align 4
  %11 = tail call i32 @dissect_ndr_uint16(ptr noundef %0, i32 noundef %9, ptr noundef %2, ptr noundef %3, ptr noundef %4, ptr noundef %5, i32 noundef %10, ptr noundef null) #5
  %12 = load i32, ptr @hf_epm_ver_min, align 4
  %13 = tail call i32 @dissect_ndr_uint16(ptr noundef %0, i32 noundef %11, ptr noundef %2, ptr noundef %3, ptr noundef %4, ptr noundef %5, i32 noundef %12, ptr noundef null) #5
  ret i32 %13
}